target datalayout = "e-m:e-p270:32:32-p271:32:32-p272:64:64-i64:64-i128:128-f80:128-n8:16:32:64-S128"
target triple = "x86_64-pc-linux-gnu"

%"struct.llvm::detail::PunnedPointer.16" = type { [8 x i8] }
%"class.clang::QualType" = type { %"class.llvm::PointerIntPair.9" }
%"class.llvm::PointerIntPair.9" = type { %"struct.llvm::detail::PunnedPointer.10" }
%"struct.llvm::detail::PunnedPointer.10" = type { [8 x i8] }
%"class.llvm::FoldingSetBase::Node" = type { ptr }
%"class.(anonymous namespace)::ODRTypeVisitor" = type { ptr, ptr }
%"class.clang::TemplateName" = type { %"class.llvm::PointerUnion.26" }
%"class.llvm::PointerUnion.26" = type { %"class.llvm::pointer_union_detail::PointerUnionMembers.27" }
%"class.llvm::pointer_union_detail::PointerUnionMembers.27" = type { %"class.llvm::pointer_union_detail::PointerUnionMembers.28" }
%"class.llvm::pointer_union_detail::PointerUnionMembers.28" = type { %"class.llvm::pointer_union_detail::PointerUnionMembers.29" }
%"class.llvm::pointer_union_detail::PointerUnionMembers.29" = type { %"class.llvm::pointer_union_detail::PointerUnionMembers.30" }
%"class.llvm::pointer_union_detail::PointerUnionMembers.30" = type { %"class.llvm::pointer_union_detail::PointerUnionMembers.31" }
%"class.llvm::pointer_union_detail::PointerUnionMembers.31" = type { %"class.llvm::PointerIntPair.32" }
%"class.llvm::PointerIntPair.32" = type { %"struct.llvm::detail::PunnedPointer.16" }
%"class.clang::ExtQualsTypeCommonBase" = type { ptr, %"class.clang::QualType" }
%union.anon.122 = type { %"class.clang::Type::FunctionTypeBitfields" }
%"class.clang::Type::FunctionTypeBitfields" = type { i64 }
%"class.clang::Type.base" = type { %"class.clang::ExtQualsTypeCommonBase", %union.anon.122 }
%"class.clang::DeducedType" = type { %"class.clang::Type.base", %"class.clang::QualType" }
%"class.clang::DeducedTemplateSpecializationType" = type { %"class.clang::DeducedType", %"class.llvm::FoldingSetBase::Node", %"class.clang::TemplateName" }

; Function Attrs: mustprogress nounwind uwtable
define internal void @_ZN12_GLOBAL__N_114ODRTypeVisitor9VisitTypeEPKN5clang4TypeE(ptr noundef nonnull align 8 dereferenceable(16) %0, ptr noundef %1) #0 align 2 {
  %3 = alloca ptr, align 8
  %4 = alloca ptr, align 8
  store ptr %0, ptr %3, align 8
  store ptr %1, ptr %4, align 8
  ret void
}

; Function Attrs: mustprogress nounwind uwtable
define internal void @_ZN12_GLOBAL__N_114ODRTypeVisitor11AddQualTypeEN5clang8QualTypeE(ptr noundef nonnull align 8 dereferenceable(16) %0, i64 %1) #0 align 2 {
  %3 = alloca %"class.clang::QualType", align 8
  %4 = alloca ptr, align 8
  %5 = alloca %"class.clang::QualType", align 8
  %6 = getelementptr inbounds nuw %"class.clang::QualType", ptr %3, i32 0, i32 0
  %7 = getelementptr inbounds nuw %"class.llvm::PointerIntPair.9", ptr %6, i32 0, i32 0
  %8 = getelementptr inbounds nuw %"struct.llvm::detail::PunnedPointer.10", ptr %7, i32 0, i32 0
  store i64 %1, ptr %8, align 8
  store ptr %0, ptr %4, align 8
  %9 = load ptr, ptr %4, align 8
  %10 = getelementptr inbounds nuw %"class.(anonymous namespace)::ODRTypeVisitor", ptr %9, i32 0, i32 1
  %11 = load ptr, ptr %10, align 8
  call void @llvm.memcpy.p0.p0.i64(ptr align 8 %5, ptr align 8 %3, i64 8, i1 false)
  %12 = getelementptr inbounds nuw %"class.clang::QualType", ptr %5, i32 0, i32 0
  %13 = getelementptr inbounds nuw %"class.llvm::PointerIntPair.9", ptr %12, i32 0, i32 0
  %14 = getelementptr inbounds nuw %"struct.llvm::detail::PunnedPointer.10", ptr %13, i32 0, i32 0
  %15 = load i64, ptr %14, align 8
  call void @_ZN5clang7ODRHash11AddQualTypeENS_8QualTypeE(ptr noundef nonnull align 8 dereferenceable(320) %11, i64 %15)
  ret void
}

; Function Attrs: mustprogress nounwind uwtable
define linkonce_odr hidden i64 @_ZNK5clang11DeducedType14getDeducedTypeEv(ptr noundef nonnull align 16 dereferenceable(32) %0) #0 comdat align 2 {
  %2 = alloca %"class.clang::QualType", align 8
  %3 = alloca ptr, align 8
  store ptr %0, ptr %3, align 8
  %4 = load ptr, ptr %3, align 8
  %5 = getelementptr inbounds nuw %"class.clang::DeducedType", ptr %4, i32 0, i32 1
  call void @llvm.memcpy.p0.p0.i64(ptr align 8 %2, ptr align 8 %5, i64 8, i1 false)
  %6 = getelementptr inbounds nuw %"class.clang::QualType", ptr %2, i32 0, i32 0
  %7 = getelementptr inbounds nuw %"class.llvm::PointerIntPair.9", ptr %6, i32 0, i32 0
  %8 = getelementptr inbounds nuw %"struct.llvm::detail::PunnedPointer.10", ptr %7, i32 0, i32 0
  %9 = load i64, ptr %8, align 8
  ret i64 %9
}

; Function Attrs: mustprogress nounwind uwtable
define internal void @_ZN12_GLOBAL__N_114ODRTypeVisitor16VisitDeducedTypeEPKN5clang11DeducedTypeE(ptr noundef nonnull align 8 dereferenceable(16) %0, ptr noundef %1) #0 align 2 {
  %3 = alloca ptr, align 8
  %4 = alloca ptr, align 8
  %5 = alloca %"class.clang::QualType", align 8
  store ptr %0, ptr %3, align 8
  store ptr %1, ptr %4, align 8
  %6 = load ptr, ptr %3, align 8
  %7 = load ptr, ptr %4, align 8
  %8 = call i64 @_ZNK5clang11DeducedType14getDeducedTypeEv(ptr noundef nonnull align 16 dereferenceable(32) %7)
  %9 = getelementptr inbounds nuw %"class.clang::QualType", ptr %5, i32 0, i32 0
  %10 = getelementptr inbounds nuw %"class.llvm::PointerIntPair.9", ptr %9, i32 0, i32 0
  %11 = getelementptr inbounds nuw %"struct.llvm::detail::PunnedPointer.10", ptr %10, i32 0, i32 0
  store i64 %8, ptr %11, align 8
  %12 = getelementptr inbounds nuw %"class.clang::QualType", ptr %5, i32 0, i32 0
  %13 = getelementptr inbounds nuw %"class.llvm::PointerIntPair.9", ptr %12, i32 0, i32 0
  %14 = getelementptr inbounds nuw %"struct.llvm::detail::PunnedPointer.10", ptr %13, i32 0, i32 0
  %15 = load i64, ptr %14, align 8
  call void @_ZN12_GLOBAL__N_114ODRTypeVisitor11AddQualTypeEN5clang8QualTypeE(ptr noundef nonnull align 8 dereferenceable(16) %6, i64 %15)
  %16 = load ptr, ptr %4, align 8
  call void @_ZN12_GLOBAL__N_114ODRTypeVisitor9VisitTypeEPKN5clang4TypeE(ptr noundef nonnull align 8 dereferenceable(16) %6, ptr noundef %16)
  ret void
}

; Function Attrs: mustprogress nounwind uwtable
define linkonce_odr hidden i64 @_ZNK5clang33DeducedTemplateSpecializationType15getTemplateNameEv(ptr noundef nonnull align 16 dereferenceable(48) %0) #0 comdat align 2 {
  %2 = alloca %"class.clang::TemplateName", align 8
  %3 = alloca ptr, align 8
  store ptr %0, ptr %3, align 8
  %4 = load ptr, ptr %3, align 8
  %5 = getelementptr inbounds nuw %"class.clang::DeducedTemplateSpecializationType", ptr %4, i32 0, i32 2
  call void @llvm.memcpy.p0.p0.i64(ptr align 8 %2, ptr align 8 %5, i64 8, i1 false)
  %6 = getelementptr inbounds nuw %"class.clang::TemplateName", ptr %2, i32 0, i32 0
  %7 = getelementptr inbounds nuw %"class.llvm::PointerUnion.26", ptr %6, i32 0, i32 0
  %8 = getelementptr inbounds nuw %"class.llvm::pointer_union_detail::PointerUnionMembers.27", ptr %7, i32 0, i32 0
  %9 = getelementptr inbounds nuw %"class.llvm::pointer_union_detail::PointerUnionMembers.28", ptr %8, i32 0, i32 0
  %10 = getelementptr inbounds nuw %"class.llvm::pointer_union_detail::PointerUnionMembers.29", ptr %9, i32 0, i32 0
  %11 = getelementptr inbounds nuw %"class.llvm::pointer_union_detail::PointerUnionMembers.30", ptr %10, i32 0, i32 0
  %12 = getelementptr inbounds nuw %"class.llvm::pointer_union_detail::PointerUnionMembers.31", ptr %11, i32 0, i32 0
  %13 = getelementptr inbounds nuw %"class.llvm::PointerIntPair.32", ptr %12, i32 0, i32 0
  %14 = getelementptr inbounds nuw %"struct.llvm::detail::PunnedPointer.16", ptr %13, i32 0, i32 0
  %15 = load i64, ptr %14, align 8
  ret i64 %15
}

; Function Attrs: mustprogress nounwind uwtable
define internal void @_ZN12_GLOBAL__N_114ODRTypeVisitor38VisitDeducedTemplateSpecializationTypeEPKN5clang33DeducedTemplateSpecializationTypeE(ptr noundef nonnull align 8 dereferenceable(16) %0, ptr noundef %1) #0 align 2 {
  %3 = alloca ptr, align 8
  %4 = alloca ptr, align 8
  %5 = alloca %"class.clang::TemplateName", align 8
  store ptr %0, ptr %3, align 8
  store ptr %1, ptr %4, align 8
  %6 = load ptr, ptr %3, align 8
  %7 = getelementptr inbounds nuw %"class.(anonymous namespace)::ODRTypeVisitor", ptr %6, i32 0, i32 1
  %8 = load ptr, ptr %7, align 8
  %9 = load ptr, ptr %4, align 8
  %10 = call i64 @_ZNK5clang33DeducedTemplateSpecializationType15getTemplateNameEv(ptr noundef nonnull align 16 dereferenceable(48) %9)
  %11 = getelementptr inbounds nuw %"class.clang::TemplateName", ptr %5, i32 0, i32 0
  %12 = getelementptr inbounds nuw %"class.llvm::PointerUnion.26", ptr %11, i32 0, i32 0
  %13 = getelementptr inbounds nuw %"class.llvm::pointer_union_detail::PointerUnionMembers.27", ptr %12, i32 0, i32 0
  %14 = getelementptr inbounds nuw %"class.llvm::pointer_union_detail::PointerUnionMembers.28", ptr %13, i32 0, i32 0
  %15 = getelementptr inbounds nuw %"class.llvm::pointer_union_detail::PointerUnionMembers.29", ptr %14, i32 0, i32 0
  %16 = getelementptr inbounds nuw %"class.llvm::pointer_union_detail::PointerUnionMembers.30", ptr %15, i32 0, i32 0
  %17 = getelementptr inbounds nuw %"class.llvm::pointer_union_detail::PointerUnionMembers.31", ptr %16, i32 0, i32 0
  %18 = getelementptr inbounds nuw %"class.llvm::PointerIntPair.32", ptr %17, i32 0, i32 0
  %19 = getelementptr inbounds nuw %"struct.llvm::detail::PunnedPointer.16", ptr %18, i32 0, i32 0
  store i64 %10, ptr %19, align 8
  %20 = getelementptr inbounds nuw %"class.clang::TemplateName", ptr %5, i32 0, i32 0
  %21 = getelementptr inbounds nuw %"class.llvm::PointerUnion.26", ptr %20, i32 0, i32 0
  %22 = getelementptr inbounds nuw %"class.llvm::pointer_union_detail::PointerUnionMembers.27", ptr %21, i32 0, i32 0
  %23 = getelementptr inbounds nuw %"class.llvm::pointer_union_detail::PointerUnionMembers.28", ptr %22, i32 0, i32 0
  %24 = getelementptr inbounds nuw %"class.llvm::pointer_union_detail::PointerUnionMembers.29", ptr %23, i32 0, i32 0
  %25 = getelementptr inbounds nuw %"class.llvm::pointer_union_detail::PointerUnionMembers.30", ptr %24, i32 0, i32 0
  %26 = getelementptr inbounds nuw %"class.llvm::pointer_union_detail::PointerUnionMembers.31", ptr %25, i32 0, i32 0
  %27 = getelementptr inbounds nuw %"class.llvm::PointerIntPair.32", ptr %26, i32 0, i32 0
  %28 = getelementptr inbounds nuw %"struct.llvm::detail::PunnedPointer.16", ptr %27, i32 0, i32 0
  %29 = load i64, ptr %28, align 8
  call void @_ZN5clang7ODRHash15AddTemplateNameENS_12TemplateNameE(ptr noundef nonnull align 8 dereferenceable(320) %8, i64 %29)
  %30 = load ptr, ptr %4, align 8
  call void @_ZN12_GLOBAL__N_114ODRTypeVisitor16VisitDeducedTypeEPKN5clang11DeducedTypeE(ptr noundef nonnull align 8 dereferenceable(16) %6, ptr noundef %30)
  ret void
}