; Function Attrs: mustprogress nounwind uwtable
define internal fastcc void @_ZN12_GLOBAL__N_114ODRTypeVisitor38VisitDeducedTemplateSpecializationTypeEPKN5clang33DeducedTemplateSpecializationTypeE(ptr noundef nonnull readonly align 8 captures(none) dereferenceable(16) %0, ptr noundef readonly captures(none) %1) unnamed_addr #0 align 2 {
  %3 = getelementptr inbounds nuw i8, ptr %0, i64 8
  %4 = load ptr, ptr %3, align 8
  %5 = getelementptr inbounds nuw i8, ptr %1, i64 40
  %.sroa.0.0.copyload.i = load i64, ptr %5, align 8
  tail call void @_ZN5clang7ODRHash15AddTemplateNameENS_12TemplateNameE(ptr noundef nonnull align 8 dereferenceable(320) %4, i64 %.sroa.0.0.copyload.i)
  %6 = getelementptr inbounds nuw i8, ptr %1, i64 24
  %.sroa.0.0.copyload.i3 = load i64, ptr %6, align 8
  %7 = load ptr, ptr %3, align 8
  tail call void @_ZN5clang7ODRHash11AddQualTypeENS_8QualTypeE(ptr noundef nonnull align 8 dereferenceable(320) %7, i64 %.sroa.0.0.copyload.i3)
  ret void
}